; Function Attrs: nounwind uwtable
define internal void @lv_scale_destructor(ptr nocapture readnone %0, ptr noundef %1) #0 {
  %3 = getelementptr inbounds nuw i8, ptr %1, i64 64
  %4 = getelementptr inbounds nuw i8, ptr %1, i64 72
  %5 = load ptr, ptr %4, align 8, !tbaa !21
  %.not7 = icmp eq ptr %5, null
  br i1 %.not7, label %._crit_edge, label %.lr.ph

.lr.ph:                                           ; preds = %2, %.lr.ph
  %6 = tail call ptr @lv_ll_get_head(ptr noundef nonnull %3) #9
  tail call void @lv_ll_remove(ptr noundef nonnull %3, ptr noundef %6) #9
  tail call void @lv_free(ptr noundef %6) #9
  %7 = load ptr, ptr %4, align 8, !tbaa !21
  %.not = icmp eq ptr %7, null
  br i1 %.not, label %._crit_edge, label %.lr.ph, !llvm.loop !22

._crit_edge:                                      ; preds = %.lr.ph, %2
  tail call void @lv_ll_clear(ptr noundef nonnull %3) #9
  ret void
}